target datalayout = "e-m:e-p270:32:32-p271:32:32-p272:64:64-i64:64-i128:128-f80:128-n8:16:32:64-S128"
target triple = "x86_64-pc-linux-gnu"

%struct.PlatformTarget = type { ptr, i32, ptr, ptr, i32, i32, i32, i32, i32, i32, i32, [7 x %struct.AlignData], [7 x %struct.AlignData], [7 x %struct.AlignData], i32, i16, %union.anon.88, i8, i8, i8, i8, i8, i8, i8, i8, i8, i8, %struct.AlignData, i32, i32, i32, i32, i32, i32, i32, i32, i32, i32, i32, i32, i32, i32, i32, i32, ptr }
%union.anon.88 = type { %struct.anon.90 }
%struct.anon.90 = type { %struct.X86Features, i32, i32 }
%struct.X86Features = type { [2 x i64], ptr }
%struct.AlignData = type { i32, i32 }
%struct.Registers = type { i32, i32 }
%struct.Type_ = type { i32, ptr, ptr, ptr, %union.anon.85, ptr, ptr, %union.anon.87 }
%union.anon.85 = type { ptr }
%union.anon.87 = type { %struct.TypeFunction }
%struct.TypeFunction = type { ptr, ptr, ptr }
%struct.Decl_ = type { ptr, ptr, %union.SourceSpan, i64, %union.anon.5, i32, %union.anon.6, i64, ptr, ptr, ptr, %union.anon.7 }
%union.SourceSpan = type { i64 }
%union.anon.5 = type { ptr }
%union.anon.6 = type { i16 }
%union.anon.7 = type { %struct.FuncDecl }
%struct.FuncDecl = type { i32, [4 x i8], %struct.Signature_, i32, i32, %union.anon.14 }
%struct.Signature_ = type <{ %struct.CalleeAttributes, i16, i8, i32, i32, [4 x i8], ptr }>
%struct.CalleeAttributes = type { i8 }
%union.anon.14 = type { %struct.anon.15 }
%struct.anon.15 = type { i16, %union.anon.16 }
%union.anon.16 = type { ptr }
%struct.anon.8 = type { ptr, ptr, %union.anon.9 }
%union.anon.9 = type { %struct.BitStructDecl }
%struct.BitStructDecl = type { ptr, ptr, i8 }
%struct.StructDecl = type { i32, ptr, i32, i16 }
%struct.VHeader_ = type { i32, i32, [0 x i8] }

@platform_target = external global %struct.PlatformTarget, align 8

; Function Attrs: nounwind uwtable
define internal zeroext i1 @x64_type_is_structure(ptr noundef %0) #0 {
  %2 = alloca i1, align 1
  %3 = alloca ptr, align 8
  store ptr %0, ptr %3, align 8
  %4 = load ptr, ptr %3, align 8
  %5 = getelementptr inbounds %struct.Type_, ptr %4, i32 0, i32 0
  %6 = load i32, ptr %5, align 8
  switch i32 %6, label %8 [
    i32 26, label %7
    i32 34, label %7
    i32 18, label %7
  ]

7:                                                ; preds = %1, %1, %1
  store i1 true, ptr %2, align 1
  br label %9

8:                                                ; preds = %1
  store i1 false, ptr %2, align 1
  br label %9

9:                                                ; preds = %8, %7
  %10 = load i1, ptr %2, align 1
  ret i1 %10
}

; Function Attrs: nounwind uwtable
define dso_local ptr @x64_indirect_return_result(ptr noundef %0) #0 {
  %2 = alloca ptr, align 8
  %3 = alloca i32, align 4
  %4 = alloca ptr, align 8
  %5 = alloca ptr, align 8
  %6 = alloca ptr, align 8
  store ptr %0, ptr %6, align 8
  %7 = load ptr, ptr %6, align 8
  %8 = call zeroext i1 @type_is_abi_aggregate(ptr noundef %7)
  br i1 %8, label %9, label %12

9:                                                ; preds = %1
  %10 = load ptr, ptr %6, align 8
  %11 = call ptr @abi_arg_new_indirect_not_by_val(ptr noundef %10)
  store ptr %11, ptr %5, align 8
  br label %48

12:                                               ; preds = %1
  %13 = load ptr, ptr %6, align 8
  %14 = call ptr @type_lowering(ptr noundef %13)
  store ptr %14, ptr %6, align 8
  %15 = load ptr, ptr %6, align 8
  store ptr %15, ptr %4, align 8
  %16 = load ptr, ptr %4, align 8
  store ptr %16, ptr %2, align 8
  %17 = load ptr, ptr %2, align 8
  %18 = load i32, ptr %17, align 8
  store i32 %18, ptr %3, align 4
  %19 = load i32, ptr %3, align 4
  %20 = icmp eq i32 %19, 31
  br i1 %20, label %21, label %26

21:                                               ; preds = %12
  %22 = load ptr, ptr %2, align 8
  %23 = getelementptr inbounds %struct.Type_, ptr %22, i32 0, i32 1
  %24 = load ptr, ptr %23, align 8
  %25 = load i32, ptr %24, align 8
  store i32 %25, ptr %3, align 4
  br label %26

26:                                               ; preds = %21, %12
  %27 = load i32, ptr %3, align 4
  %28 = icmp uge i32 %27, 2
  br i1 %28, label %29, label %32

29:                                               ; preds = %26
  %30 = load i32, ptr %3, align 4
  %31 = icmp ule i32 %30, 12
  br label %32

32:                                               ; preds = %29, %26
  %33 = phi i1 [ false, %26 ], [ %31, %29 ]
  br i1 %33, label %34, label %41

34:                                               ; preds = %32
  %35 = load ptr, ptr %4, align 8
  %36 = getelementptr inbounds %struct.Type_, ptr %35, i32 0, i32 7
  %37 = load i32, ptr %36, align 8
  %38 = and i32 %37, 255
  %39 = load i32, ptr getelementptr inbounds (%struct.PlatformTarget, ptr @platform_target, i32 0, i32 33), align 8
  %40 = icmp ult i32 %38, %39
  br label %41

41:                                               ; preds = %34, %32
  %42 = phi i1 [ false, %32 ], [ %40, %34 ]
  br i1 %42, label %43, label %46

43:                                               ; preds = %41
  %44 = load ptr, ptr %6, align 8
  %45 = call ptr @abi_arg_new_direct_int_ext(ptr noundef %44)
  store ptr %45, ptr %5, align 8
  br label %48

46:                                               ; preds = %41
  %47 = call ptr @abi_arg_new_direct()
  store ptr %47, ptr %5, align 8
  br label %48

48:                                               ; preds = %46, %43, %9
  %49 = load ptr, ptr %5, align 8
  ret ptr %49
}

; Function Attrs: nounwind uwtable
define dso_local ptr @x64_classify_reg_call_struct_type_check(ptr noundef %0, ptr noundef %1) #0 {
  %3 = alloca i32, align 4
  %4 = alloca ptr, align 8
  %5 = alloca ptr, align 8
  %6 = alloca ptr, align 8
  %7 = alloca ptr, align 8
  %8 = alloca ptr, align 8
  %9 = alloca ptr, align 8
  %10 = alloca i32, align 4
  %11 = alloca i32, align 4
  %12 = alloca ptr, align 8
  %13 = alloca ptr, align 8
  %14 = alloca %struct.Registers, align 4
  %15 = alloca %struct.Registers, align 4
  store ptr %0, ptr %7, align 8
  store ptr %1, ptr %8, align 8
  %16 = load ptr, ptr %7, align 8
  %17 = getelementptr inbounds %struct.Type_, ptr %16, i32 0, i32 0
  %18 = load i32, ptr %17, align 8
  %19 = icmp eq i32 %18, 34
  br i1 %19, label %25, label %20

20:                                               ; preds = %2
  %21 = load ptr, ptr %7, align 8
  %22 = getelementptr inbounds %struct.Type_, ptr %21, i32 0, i32 0
  %23 = load i32, ptr %22, align 8
  %24 = icmp eq i32 %23, 18
  br i1 %24, label %25, label %31

25:                                               ; preds = %20, %2
  %26 = load ptr, ptr %8, align 8
  %27 = getelementptr inbounds %struct.Registers, ptr %26, i32 0, i32 1
  %28 = load i32, ptr %27, align 4
  %29 = add i32 %28, 2
  store i32 %29, ptr %27, align 4
  %30 = call ptr @abi_arg_new_direct()
  store ptr %30, ptr %6, align 8
  br label %112

31:                                               ; preds = %20
  %32 = load ptr, ptr %7, align 8
  %33 = getelementptr inbounds %struct.Type_, ptr %32, i32 0, i32 7
  %34 = load ptr, ptr %33, align 8
  %35 = getelementptr inbounds %struct.Decl_, ptr %34, i32 0, i32 3
  %36 = load i64, ptr %35, align 8
  %37 = lshr i64 %36, 16
  %38 = and i64 %37, 1
  %39 = trunc i64 %38 to i1
  br i1 %39, label %40, label %43

40:                                               ; preds = %31
  %41 = load ptr, ptr %7, align 8
  %42 = call ptr @x64_indirect_return_result(ptr noundef %41)
  store ptr %42, ptr %6, align 8
  br label %112

43:                                               ; preds = %31
  %44 = load ptr, ptr %7, align 8
  %45 = getelementptr inbounds %struct.Type_, ptr %44, i32 0, i32 7
  %46 = load ptr, ptr %45, align 8
  %47 = getelementptr inbounds %struct.Decl_, ptr %46, i32 0, i32 11
  %48 = getelementptr inbounds %struct.anon.8, ptr %47, i32 0, i32 2
  %49 = getelementptr inbounds %struct.StructDecl, ptr %48, i32 0, i32 1
  %50 = load ptr, ptr %49, align 8
  store ptr %50, ptr %9, align 8
  store i32 0, ptr %10, align 4
  %51 = load ptr, ptr %9, align 8
  store ptr %51, ptr %4, align 8
  %52 = load ptr, ptr %4, align 8
  %53 = icmp ne ptr %52, null
  br i1 %53, label %55, label %54

54:                                               ; preds = %43
  store i32 0, ptr %3, align 4
  br label %60

55:                                               ; preds = %43
  %56 = load ptr, ptr %4, align 8
  store ptr %56, ptr %5, align 8
  %57 = load ptr, ptr %5, align 8
  %58 = getelementptr inbounds %struct.VHeader_, ptr %57, i64 -1
  %59 = load i32, ptr %58, align 4
  store i32 %59, ptr %3, align 4
  br label %60

60:                                               ; preds = %55, %54
  %61 = load i32, ptr %3, align 4
  store i32 %61, ptr %11, align 4
  br label %62

62:                                               ; preds = %107, %60
  %63 = load i32, ptr %10, align 4
  %64 = load i32, ptr %11, align 4
  %65 = icmp ult i32 %63, %64
  br i1 %65, label %66, label %110

66:                                               ; preds = %62
  %67 = load ptr, ptr %9, align 8
  %68 = load i32, ptr %10, align 4
  %69 = zext i32 %68 to i64
  %70 = getelementptr inbounds ptr, ptr %67, i64 %69
  %71 = load ptr, ptr %70, align 8
  %72 = getelementptr inbounds %struct.Decl_, ptr %71, i32 0, i32 10
  %73 = load ptr, ptr %72, align 8
  %74 = getelementptr inbounds %struct.Type_, ptr %73, i32 0, i32 1
  %75 = load ptr, ptr %74, align 8
  %76 = call ptr @type_lowering(ptr noundef %75)
  store ptr %76, ptr %12, align 8
  call void @llvm.memset.p0.i64(ptr align 4 %14, i8 0, i64 8, i1 false)
  %77 = load ptr, ptr %12, align 8
  %78 = call zeroext i1 @x64_type_is_structure(ptr noundef %77)
  br i1 %78, label %79, label %82

79:                                               ; preds = %66
  %80 = load ptr, ptr %12, align 8
  %81 = call ptr @x64_classify_reg_call_struct_type_check(ptr noundef %80, ptr noundef %14)
  store ptr %81, ptr %13, align 8
  br label %85

82:                                               ; preds = %66
  %83 = load ptr, ptr %12, align 8
  %84 = call ptr @x64_classify_argument_type(ptr noundef %83, i32 noundef -1, ptr noundef %14, i32 noundef 1)
  store ptr %84, ptr %13, align 8
  br label %85

85:                                               ; preds = %82, %79
  %86 = load ptr, ptr %13, align 8
  %87 = call zeroext i1 @abi_arg_is_indirect(ptr noundef %86)
  br i1 %87, label %88, label %94

88:                                               ; preds = %85
  %89 = load ptr, ptr %8, align 8
  %90 = getelementptr inbounds %struct.Registers, ptr %15, i32 0, i32 0
  store i32 0, ptr %90, align 4
  %91 = getelementptr inbounds %struct.Registers, ptr %15, i32 0, i32 1
  store i32 0, ptr %91, align 4
  call void @llvm.memcpy.p0.p0.i64(ptr align 4 %89, ptr align 4 %15, i64 8, i1 false)
  %92 = load ptr, ptr %7, align 8
  %93 = call ptr @x64_indirect_return_result(ptr noundef %92)
  store ptr %93, ptr %6, align 8
  br label %112

94:                                               ; preds = %85
  %95 = getelementptr inbounds %struct.Registers, ptr %14, i32 0, i32 0
  %96 = load i32, ptr %95, align 4
  %97 = load ptr, ptr %8, align 8
  %98 = getelementptr inbounds %struct.Registers, ptr %97, i32 0, i32 0
  %99 = load i32, ptr %98, align 4
  %100 = add i32 %99, %96
  store i32 %100, ptr %98, align 4
  %101 = getelementptr inbounds %struct.Registers, ptr %14, i32 0, i32 1
  %102 = load i32, ptr %101, align 4
  %103 = load ptr, ptr %8, align 8
  %104 = getelementptr inbounds %struct.Registers, ptr %103, i32 0, i32 1
  %105 = load i32, ptr %104, align 4
  %106 = add i32 %105, %102
  store i32 %106, ptr %104, align 4
  br label %107

107:                                              ; preds = %94
  %108 = load i32, ptr %10, align 4
  %109 = add i32 %108, 1
  store i32 %109, ptr %10, align 4
  br label %62, !llvm.loop !7

110:                                              ; preds = %62
  %111 = call ptr @abi_arg_new_direct()
  store ptr %111, ptr %6, align 8
  br label %112

112:                                              ; preds = %110, %88, %40, %25
  %113 = load ptr, ptr %6, align 8
  ret ptr %113
}