; Function Attrs: nounwind uwtable
define dso_local ptr @x64_classify_reg_call_struct_type_check(ptr noundef %0, ptr nocapture noundef %1) local_unnamed_addr #1 {
  %3 = alloca %struct.Registers, align 8
  %4 = load i32, ptr %0, align 8
  switch i32 %4, label %10 [
    i32 34, label %5
    i32 18, label %5
  ]

5:                                                ; preds = %2, %2
  %6 = getelementptr inbounds i8, ptr %1, i64 4
  %7 = load i32, ptr %6, align 4
  %8 = add i32 %7, 2
  store i32 %8, ptr %6, align 4
  %9 = tail call ptr @abi_arg_new_direct() #7
  br label %x64_indirect_return_result.exit

10:                                               ; preds = %2
  %11 = getelementptr inbounds i8, ptr %0, i64 56
  %12 = load ptr, ptr %11, align 8
  %13 = getelementptr inbounds i8, ptr %12, i64 24
  %14 = load i64, ptr %13, align 8
  %15 = and i64 %14, 65536
  %.not = icmp eq i64 %15, 0
  br i1 %.not, label %40, label %16

16:                                               ; preds = %10
  %17 = tail call zeroext i1 @type_is_abi_aggregate(ptr noundef nonnull %0) #7
  br i1 %17, label %18, label %20

18:                                               ; preds = %16
  %19 = tail call ptr @abi_arg_new_indirect_not_by_val(ptr noundef nonnull %0) #7
  br label %x64_indirect_return_result.exit

20:                                               ; preds = %16
  %21 = tail call fastcc ptr @type_lowering(ptr noundef nonnull %0)
  %22 = load i32, ptr %21, align 8
  %23 = icmp eq i32 %22, 31
  br i1 %23, label %24, label %28

24:                                               ; preds = %20
  %25 = getelementptr inbounds i8, ptr %21, i64 8
  %26 = load ptr, ptr %25, align 8
  %27 = load i32, ptr %26, align 8
  br label %28

28:                                               ; preds = %24, %20
  %.012.i = phi i32 [ %27, %24 ], [ %22, %20 ]
  %29 = add i32 %.012.i, -2
  %30 = icmp ult i32 %29, 11
  br i1 %30, label %31, label %.critedge.i

31:                                               ; preds = %28
  %32 = getelementptr inbounds i8, ptr %21, i64 56
  %33 = load i32, ptr %32, align 8
  %34 = and i32 %33, 255
  %35 = load i32, ptr getelementptr inbounds (%struct.PlatformTarget, ptr @platform_target, i64 0, i32 33), align 8
  %36 = icmp ult i32 %34, %35
  br i1 %36, label %37, label %.critedge.i

37:                                               ; preds = %31
  %38 = tail call ptr @abi_arg_new_direct_int_ext(ptr noundef nonnull %21) #7
  br label %x64_indirect_return_result.exit

.critedge.i:                                      ; preds = %31, %28
  %39 = tail call ptr @abi_arg_new_direct() #7
  br label %x64_indirect_return_result.exit

40:                                               ; preds = %10
  %41 = getelementptr inbounds i8, ptr %12, i64 104
  %42 = load ptr, ptr %41, align 8
  %.not29 = icmp eq ptr %42, null
  br i1 %.not29, label %._crit_edge, label %43

43:                                               ; preds = %40
  %44 = getelementptr inbounds i8, ptr %42, i64 -8
  %45 = load i32, ptr %44, align 4
  %.not37 = icmp eq i32 %45, 0
  br i1 %.not37, label %._crit_edge, label %.lr.ph

.lr.ph:                                           ; preds = %43
  %46 = getelementptr inbounds i8, ptr %1, i64 4
  %wide.trip.count = zext i32 %45 to i64
  br label %47

47:                                               ; preds = %.lr.ph, %84
  %indvars.iv = phi i64 [ 0, %.lr.ph ], [ %indvars.iv.next, %84 ]
  %48 = getelementptr inbounds ptr, ptr %42, i64 %indvars.iv
  %49 = load ptr, ptr %48, align 8
  %50 = getelementptr inbounds i8, ptr %49, i64 72
  %51 = load ptr, ptr %50, align 8
  %52 = getelementptr inbounds i8, ptr %51, i64 8
  %53 = load ptr, ptr %52, align 8
  %54 = tail call fastcc ptr @type_lowering(ptr noundef %53)
  store i64 0, ptr %3, align 8
  %.val = load i32, ptr %54, align 8
  switch i32 %.val, label %x64_type_is_structure.exit [
    i32 26, label %55
    i32 34, label %55
    i32 18, label %55
  ]

55:                                               ; preds = %47, %47, %47
  %56 = call ptr @x64_classify_reg_call_struct_type_check(ptr noundef nonnull %54, ptr noundef nonnull %3)
  br label %58

x64_type_is_structure.exit:                       ; preds = %47
  %57 = call fastcc ptr @x64_classify_argument_type(ptr noundef nonnull %54, i32 noundef -1, ptr noundef nonnull %3, i32 noundef 1)
  br label %58

58:                                               ; preds = %x64_type_is_structure.exit, %55
  %.025 = phi ptr [ %56, %55 ], [ %57, %x64_type_is_structure.exit ]
  %59 = tail call zeroext i1 @abi_arg_is_indirect(ptr noundef %.025) #7
  br i1 %59, label %60, label %84

60:                                               ; preds = %58
  store i32 0, ptr %1, align 4
  store i32 0, ptr %46, align 4
  %61 = tail call zeroext i1 @type_is_abi_aggregate(ptr noundef nonnull %0) #7
  br i1 %61, label %62, label %64

62:                                               ; preds = %60
  %63 = tail call ptr @abi_arg_new_indirect_not_by_val(ptr noundef nonnull %0) #7
  br label %x64_indirect_return_result.exit

64:                                               ; preds = %60
  %65 = tail call fastcc ptr @type_lowering(ptr noundef nonnull %0)
  %66 = load i32, ptr %65, align 8
  %67 = icmp eq i32 %66, 31
  br i1 %67, label %68, label %72

68:                                               ; preds = %64
  %69 = getelementptr inbounds i8, ptr %65, i64 8
  %70 = load ptr, ptr %69, align 8
  %71 = load i32, ptr %70, align 8
  br label %72

72:                                               ; preds = %68, %64
  %.012.i31 = phi i32 [ %71, %68 ], [ %66, %64 ]
  %73 = add i32 %.012.i31, -2
  %74 = icmp ult i32 %73, 11
  br i1 %74, label %75, label %.critedge.i32

75:                                               ; preds = %72
  %76 = getelementptr inbounds i8, ptr %65, i64 56
  %77 = load i32, ptr %76, align 8
  %78 = and i32 %77, 255
  %79 = load i32, ptr getelementptr inbounds (%struct.PlatformTarget, ptr @platform_target, i64 0, i32 33), align 8
  %80 = icmp ult i32 %78, %79
  br i1 %80, label %81, label %.critedge.i32

81:                                               ; preds = %75
  %82 = tail call ptr @abi_arg_new_direct_int_ext(ptr noundef nonnull %65) #7
  br label %x64_indirect_return_result.exit

.critedge.i32:                                    ; preds = %75, %72
  %83 = tail call ptr @abi_arg_new_direct() #7
  br label %x64_indirect_return_result.exit

84:                                               ; preds = %58
  %85 = load <2 x i32>, ptr %3, align 8
  %86 = load <2 x i32>, ptr %1, align 4
  %87 = add <2 x i32> %86, %85
  store <2 x i32> %87, ptr %1, align 4
  %indvars.iv.next = add nuw nsw i64 %indvars.iv, 1
  %exitcond.not = icmp eq i64 %indvars.iv.next, %wide.trip.count
  br i1 %exitcond.not, label %._crit_edge, label %47, !llvm.loop !7

._crit_edge:                                      ; preds = %84, %40, %43
  %88 = tail call ptr @abi_arg_new_direct() #7
  br label %x64_indirect_return_result.exit

x64_indirect_return_result.exit:                  ; preds = %.critedge.i32, %81, %62, %.critedge.i, %37, %18, %._crit_edge, %5
  %.024 = phi ptr [ %9, %5 ], [ %88, %._crit_edge ], [ %19, %18 ], [ %38, %37 ], [ %39, %.critedge.i ], [ %63, %62 ], [ %82, %81 ], [ %83, %.critedge.i32 ]
  ret ptr %.024
}